; Function Attrs: mustprogress uwtable
define dso_local void @_ZN3LhsC2ERK8Variable(ptr noundef nonnull align 8 dereferenceable(41) %0, ptr noundef nonnull align 8 dereferenceable(200) %1) unnamed_addr #3 align 2 {
  tail call void @_ZN10ExpressionC2E9eTermType(ptr noundef nonnull align 8 dereferenceable(24) %0, i32 noundef 5)
  store ptr getelementptr inbounds nuw inrange(-16, 176) (i8, ptr @_ZTV3Lhs, i64 16), ptr %0, align 8, !tbaa !89
  %3 = getelementptr inbounds nuw i8, ptr %0, i64 24
  store ptr %1, ptr %3, align 8, !tbaa !91
  %4 = getelementptr inbounds nuw i8, ptr %0, i64 32
  %5 = getelementptr inbounds nuw i8, ptr %1, i64 64
  %6 = load ptr, ptr %5, align 8, !tbaa !42
  store ptr %6, ptr %4, align 8, !tbaa !92
  %7 = getelementptr inbounds nuw i8, ptr %0, i64 40
  store i8 0, ptr %7, align 8, !tbaa !96
  ret void
}